; Function Attrs: nounwind uwtable
define i32 @Gia_SplitCofVar2(ptr noundef %0, ptr noundef writeonly captures(none) %1, ptr noundef writeonly captures(none) %2) local_unnamed_addr #0 {
  %4 = getelementptr inbounds nuw i8, ptr %0, i64 144
  %5 = load ptr, ptr %4, align 8, !tbaa !3
  %6 = icmp eq ptr %5, null
  br i1 %6, label %7, label %8

7:                                                ; preds = %3
  tail call void @Gia_ManCreateRefs(ptr noundef nonnull %0) #18
  br label %8

8:                                                ; preds = %7, %3
  %9 = getelementptr i8, ptr %0, i64 16
  %.val27 = load i32, ptr %9, align 8, !tbaa !34
  %10 = getelementptr i8, ptr %0, i64 64
  %.val28 = load ptr, ptr %10, align 8, !tbaa !35
  %11 = getelementptr i8, ptr %.val28, i64 4
  %.val28.val = load i32, ptr %11, align 4, !tbaa !36
  %12 = sub nsw i32 %.val28.val, %.val27
  %13 = icmp sgt i32 %12, 0
  br i1 %13, label %.lr.ph, label %..critedge_crit_edge

..critedge_crit_edge:                             ; preds = %8
  %.val22.pre = load ptr, ptr %4, align 8, !tbaa !3
  br label %.critedge

.lr.ph:                                           ; preds = %8
  %14 = getelementptr i8, ptr %0, i64 32
  %.val29 = load ptr, ptr %14, align 8, !tbaa !29
  %.not = icmp eq ptr %.val29, null
  %.val22.pre45 = load ptr, ptr %4, align 8, !tbaa !3
  br i1 %.not, label %.critedge, label %.lr.ph.split

.lr.ph.split:                                     ; preds = %.lr.ph
  %15 = getelementptr i8, ptr %.val28, i64 8
  %.val30.val = load ptr, ptr %15, align 8, !tbaa !38
  %wide.trip.count = zext nneg i32 %12 to i64
  br label %16

16:                                               ; preds = %.lr.ph.split, %16
  %indvars.iv = phi i64 [ 0, %.lr.ph.split ], [ %indvars.iv.next, %16 ]
  %.038 = phi i32 [ -1, %.lr.ph.split ], [ %spec.select35, %16 ]
  %.01837 = phi i32 [ -1, %.lr.ph.split ], [ %spec.select, %16 ]
  %17 = getelementptr inbounds nuw i32, ptr %.val30.val, i64 %indvars.iv
  %18 = load i32, ptr %17, align 4, !tbaa !30
  %19 = zext i32 %18 to i64
  %sext.i = shl nuw i64 %19, 32
  %20 = ashr exact i64 %sext.i, 30
  %21 = getelementptr inbounds i8, ptr %.val22.pre45, i64 %20
  %22 = load i32, ptr %21, align 4, !tbaa !30
  %23 = icmp slt i32 %.038, %22
  %24 = trunc nuw nsw i64 %indvars.iv to i32
  %spec.select = select i1 %23, i32 %24, i32 %.01837
  %spec.select35 = tail call i32 @llvm.smax.i32(i32 %.038, i32 %22)
  %indvars.iv.next = add nuw nsw i64 %indvars.iv, 1
  %exitcond.not = icmp eq i64 %indvars.iv.next, %wide.trip.count
  br i1 %exitcond.not, label %.critedge, label %16, !llvm.loop !40

.critedge:                                        ; preds = %16, %..critedge_crit_edge, %.lr.ph
  %.val22 = phi ptr [ %.val22.pre, %..critedge_crit_edge ], [ %.val22.pre45, %.lr.ph ], [ %.val22.pre45, %16 ]
  %.018.lcssa = phi i32 [ -1, %..critedge_crit_edge ], [ -1, %.lr.ph ], [ %spec.select, %16 ]
  %25 = getelementptr i8, ptr %.val28, i64 8
  %.val32.val = load ptr, ptr %25, align 8, !tbaa !38
  %26 = sext i32 %.018.lcssa to i64
  %27 = getelementptr inbounds i32, ptr %.val32.val, i64 %26
  %28 = load i32, ptr %27, align 4, !tbaa !30
  %29 = zext i32 %28 to i64
  %sext.i34 = shl nuw i64 %29, 32
  %30 = ashr exact i64 %sext.i34, 30
  %31 = getelementptr inbounds i8, ptr %.val22, i64 %30
  %32 = load i32, ptr %31, align 4, !tbaa !30
  store i32 %32, ptr %1, align 4, !tbaa !30
  store i32 -1, ptr %2, align 4, !tbaa !30
  ret i32 %.018.lcssa
}